; Function Attrs: mustprogress nounwind uwtable
define dso_local void @_ZN4llvm14RecordStreamer8markUsedERKNS_8MCSymbolE(ptr noundef nonnull align 8 dereferenceable(344) %0, ptr nocapture noundef nonnull readonly align 8 dereferenceable(32) %1) local_unnamed_addr #0 align 2 {
  %3 = getelementptr inbounds nuw i8, ptr %0, i64 296
  %4 = getelementptr inbounds nuw i8, ptr %1, i64 8
  %5 = load i64, ptr %4, align 8
  %6 = and i64 %5, 1
  %.not.i = icmp eq i64 %6, 0
  br i1 %.not.i, label %_ZNK4llvm8MCSymbol7getNameEv.exit, label %7

7:                                                ; preds = %2
  %8 = getelementptr inbounds i8, ptr %1, i64 -8
  %9 = load ptr, ptr %8, align 8
  %10 = getelementptr inbounds i8, ptr %9, i64 24
  %11 = load i64, ptr %9, align 8
  br label %_ZNK4llvm8MCSymbol7getNameEv.exit

_ZNK4llvm8MCSymbol7getNameEv.exit:                ; preds = %2, %7
  %.sroa.0.0.i = phi ptr [ %10, %7 ], [ null, %2 ]
  %.sroa.4.0.i = phi i64 [ %11, %7 ], [ 0, %2 ]
  %12 = tail call noundef i32 @_ZN4llvm13StringMapImpl4hashENS_9StringRefE(ptr %.sroa.0.0.i, i64 %.sroa.4.0.i) #15
  %13 = tail call { ptr, i8 } @_ZN4llvm9StringMapINS_14RecordStreamer5StateENS_15MallocAllocatorEE21try_emplace_with_hashIJEEESt4pairINS_17StringMapIteratorIS2_EEbENS_9StringRefEjDpOT_(ptr noundef nonnull align 8 dereferenceable(24) %3, ptr %.sroa.0.0.i, i64 %.sroa.4.0.i, i32 noundef %12)
  %.fca.0.extract.i = extractvalue { ptr, i8 } %13, 0
  %14 = load ptr, ptr %.fca.0.extract.i, align 8
  %15 = getelementptr inbounds nuw i8, ptr %14, i64 8
  %16 = load i32, ptr %15, align 4
  switch i32 %16, label %18 [
    i32 5, label %17
    i32 0, label %17
  ]

17:                                               ; preds = %_ZNK4llvm8MCSymbol7getNameEv.exit, %_ZNK4llvm8MCSymbol7getNameEv.exit
  store i32 5, ptr %15, align 4
  br label %18

18:                                               ; preds = %17, %_ZNK4llvm8MCSymbol7getNameEv.exit
  ret void
}